(dp0
S'setting'
p1
(dp2
S'tested rank'
p3
S'4, '
p4
sS'tested alpha'
p5
S'0.0001, 0.001, 0.01, 0.1, '
p6
sS'rank for estimation'
p7
S'4, '
p8
sS'using relation data'
p9
S'True'
p10
sS'method'
p11
S'CPWOPT'
p12
sS'fraction of unobserved elements'
p13
S'0.75, 0.9, 0.95, 0.99, '
p14
ssS'result'
p15
(dp16
S'0.95'
p17
(dp18
S'(0.001, 4)'
p19
S'0.796455952695, '
p20
sS'(0.01, 4)'
p21
S'0.317978609486, 0.0652995555469, 0.231244842676, 0.22177689289, '
p22
ssS'0.9'
p23
(dp24
S'(0.1, 4)'
p25
S'0.0567873432789, 0.0554726596336, '
p26
sS'(0.0001, 4)'
p27
S'0.0570106248523, '
p28
sS'(0.01, 4)'
p29
S'0.0552384495912, 0.0573629531713, '
p30
ssS'0.99'
p31
(dp32
S'(0.001, 4)'
p33
S'2.89587792833, '
p34
sS'(0.1, 4)'
p35
S'2.74131925089, '
p36
sS'(0.0001, 4)'
p37
S'2.05360106018, 2.62072040328, '
p38
sS'(0.01, 4)'
p39
S'2.97307327341, '
p40
ssS'0.75'
p41
(dp42
S'(0.0001, 4)'
p43
S'0.0564359524459, 0.144290046854, 0.0546392906992, 0.0664367276032, '
p44
sS'(0.01, 4)'
p45
S'0.0629049888125, '
p46
sss.