(dp0
S'setting'
p1
(dp2
S'tested rank'
p3
S'4, '
p4
sS'tested alpha'
p5
S'0.0001, 0.001, 0.01, 0.1, '
p6
sS'rank for estimation'
p7
S'4, '
p8
sS'using relation data'
p9
S'True'
p10
sS'method'
p11
S'CPProd'
p12
sS'fraction of unobserved elements'
p13
S'0.75, 0.9, 0.95, 0.99, '
p14
ssS'result'
p15
(dp16
S'0.95'
p17
(dp18
S'(0.0001, 4)'
p19
S'0.0837791696481, 0.186872864681, 0.145983498764, 0.189821981188, 0.0897288708369, '
p20
ssS'0.9'
p21
(dp22
S'(0.0001, 4)'
p23
S'0.0648110717924, 0.0657933313419, 0.0645036070963, 0.0885611012834, 0.159324482891, '
p24
ssS'0.99'
p25
(dp26
S'(0.001, 4)'
p27
S'0.365463972943, 0.360505688008, '
p28
sS'(0.01, 4)'
p29
S'0.413705063605, 0.418255775463, 0.411042738699, '
p30
ssS'0.75'
p31
(dp32
S'(0.0001, 4)'
p33
S'0.0501935413542, 0.0508538123624, 0.0507258121344, 0.0512284505396, 0.0508732365527, '
p34
sss.